target datalayout = "e-m:e-p270:32:32-p271:32:32-p272:64:64-i64:64-i128:128-f80:128-n8:16:32:64-S128"
target triple = "x86_64-pc-linux-gnu"

; Function Attrs: mustprogress uwtable
define noundef i32 @_ZN3g2o18SolverSLAM2DLinear5solveEib(ptr noundef nonnull align 8 dereferenceable(88) %0, i32 noundef %1, i1 noundef zeroext %2) unnamed_addr #3 align 2 {
  %4 = alloca i32, align 4
  %5 = alloca ptr, align 8
  %6 = alloca i32, align 4
  %7 = alloca i8, align 1
  %8 = alloca i8, align 1
  %9 = alloca i32, align 4
  store ptr %0, ptr %5, align 8, !tbaa !14
  store i32 %1, ptr %6, align 4, !tbaa !24
  %10 = zext i1 %2 to i8
  store i8 %10, ptr %7, align 1, !tbaa !26
  %11 = load ptr, ptr %5, align 8
  %12 = load i32, ptr %6, align 4, !tbaa !24
  %13 = icmp eq i32 %12, 0
  br i1 %13, label %14, label %24

14:                                               ; preds = %3
  call void @llvm.lifetime.start.p0(i64 1, ptr %8) #6
  %15 = call noundef zeroext i1 @_ZN3g2o18SolverSLAM2DLinear16solveOrientationEv(ptr noundef nonnull align 8 dereferenceable(88) %11)
  %16 = zext i1 %15 to i8
  store i8 %16, ptr %8, align 1, !tbaa !26
  %17 = load i8, ptr %8, align 1, !tbaa !26, !range !28, !noundef !29
  %18 = trunc i8 %17 to i1
  br i1 %18, label %20, label %19

19:                                               ; preds = %14
  store i32 -1, ptr %4, align 4
  store i32 1, ptr %9, align 4
  br label %21

20:                                               ; preds = %14
  store i32 0, ptr %9, align 4
  br label %21

21:                                               ; preds = %20, %19
  call void @llvm.lifetime.end.p0(i64 1, ptr %8) #6
  %22 = load i32, ptr %9, align 4
  switch i32 %22, label %31 [
    i32 0, label %23
    i32 1, label %29
  ]

23:                                               ; preds = %21
  br label %24

24:                                               ; preds = %23, %3
  %25 = load i32, ptr %6, align 4, !tbaa !24
  %26 = load i8, ptr %7, align 1, !tbaa !26, !range !28, !noundef !29
  %27 = trunc i8 %26 to i1
  %28 = call noundef i32 @_ZN3g2o32OptimizationAlgorithmGaussNewton5solveEib(ptr noundef nonnull align 8 dereferenceable(88) %11, i32 noundef %25, i1 noundef zeroext %27)
  store i32 %28, ptr %4, align 4
  br label %29

29:                                               ; preds = %24, %21
  %30 = load i32, ptr %4, align 4
  ret i32 %30

31:                                               ; preds = %21
  unreachable
}