; Function Attrs: mustprogress uwtable
define noundef i32 @_ZN3g2o18SolverSLAM2DLinear5solveEib(ptr noundef nonnull align 8 dereferenceable(88) %0, i32 noundef %1, i1 noundef zeroext %2) unnamed_addr #4 align 2 {
  %4 = icmp eq i32 %1, 0
  br i1 %4, label %5, label %7

5:                                                ; preds = %3
  %6 = tail call noundef zeroext i1 @_ZN3g2o18SolverSLAM2DLinear16solveOrientationEv(ptr noundef nonnull align 8 dereferenceable(88) %0)
  br i1 %6, label %7, label %9

7:                                                ; preds = %5, %3
  %8 = tail call noundef i32 @_ZN3g2o32OptimizationAlgorithmGaussNewton5solveEib(ptr noundef nonnull align 8 dereferenceable(88) %0, i32 noundef %1, i1 noundef zeroext %2)
  br label %9

9:                                                ; preds = %5, %7
  %.1 = phi i32 [ -1, %5 ], [ %8, %7 ]
  ret i32 %.1
}